target datalayout = "e-m:e-p270:32:32-p271:32:32-p272:64:64-i64:64-i128:128-f80:128-n8:16:32:64-S128"
target triple = "x86_64-pc-linux-gnu"

%struct.ForEachState = type { ptr, i32 }
%struct.PlannerInfo = type { i32, ptr, ptr, i32, ptr, ptr, ptr, ptr, i32, ptr, ptr, ptr, ptr, ptr, ptr, ptr, ptr, i32, ptr, ptr, ptr, ptr, ptr, i8, ptr, ptr, ptr, ptr, ptr, i32, ptr, ptr, ptr, ptr, ptr, ptr, ptr, i32, ptr, ptr, ptr, i32, ptr, ptr, ptr, ptr, ptr, ptr, [8 x ptr], [8 x ptr], ptr, ptr, ptr, ptr, ptr, ptr, ptr, double, double, double, i32, i8, i8, i8, i8, i8, i8, i8, i32, ptr, ptr, i32, i8, i8, i32, ptr, ptr, ptr, ptr, ptr, ptr, i8, ptr }
%struct.List = type { i32, i32, i32, ptr, [0 x %union.ListCell] }
%union.ListCell = type { ptr }
%struct.RelOptInfo = type { i32, i32, ptr, double, i8, i8, i8, ptr, ptr, ptr, ptr, ptr, ptr, ptr, ptr, ptr, ptr, i32, i32, i32, i16, i16, ptr, ptr, ptr, ptr, ptr, ptr, ptr, ptr, i32, double, double, ptr, ptr, ptr, i32, i32, i32, i32, i8, ptr, ptr, ptr, ptr, ptr, %struct.QualCost, i32, ptr, i8, i8, ptr, ptr, ptr, ptr, i32, ptr, i8, ptr, ptr, ptr, ptr, ptr, ptr }
%struct.QualCost = type { double, double }
%struct.PlaceHolderInfo = type { i32, i32, ptr, ptr, ptr, ptr, i32 }
%struct.SpecialJoinInfo = type { i32, ptr, ptr, ptr, ptr, i32, i32, ptr, ptr, ptr, ptr, i8, i8, i8, ptr, ptr }

; Function Attrs: nounwind uwtable
define dso_local zeroext i1 @have_join_order_restriction(ptr noundef %0, ptr noundef %1, ptr noundef %2) #0 {
  %4 = alloca i1, align 1
  %5 = alloca ptr, align 8
  %6 = alloca ptr, align 8
  %7 = alloca ptr, align 8
  %8 = alloca i8, align 1
  %9 = alloca ptr, align 8
  %10 = alloca i32, align 4
  %11 = alloca %struct.ForEachState, align 8
  %12 = alloca ptr, align 8
  %13 = alloca %struct.ForEachState, align 8
  %14 = alloca ptr, align 8
  store ptr %0, ptr %5, align 8
  store ptr %1, ptr %6, align 8
  store ptr %2, ptr %7, align 8
  call void @llvm.lifetime.start.p0(i64 1, ptr %8) #7
  store i8 0, ptr %8, align 1
  call void @llvm.lifetime.start.p0(i64 8, ptr %9) #7
  %15 = load ptr, ptr %6, align 8
  %16 = getelementptr inbounds nuw %struct.RelOptInfo, ptr %15, i32 0, i32 2
  %17 = load ptr, ptr %16, align 8
  %18 = load ptr, ptr %7, align 8
  %19 = getelementptr inbounds nuw %struct.RelOptInfo, ptr %18, i32 0, i32 15
  %20 = load ptr, ptr %19, align 8
  %21 = call zeroext i1 @bms_overlap(ptr noundef %17, ptr noundef %20)
  br i1 %21, label %30, label %22

22:                                               ; preds = %3
  %23 = load ptr, ptr %7, align 8
  %24 = getelementptr inbounds nuw %struct.RelOptInfo, ptr %23, i32 0, i32 2
  %25 = load ptr, ptr %24, align 8
  %26 = load ptr, ptr %6, align 8
  %27 = getelementptr inbounds nuw %struct.RelOptInfo, ptr %26, i32 0, i32 15
  %28 = load ptr, ptr %27, align 8
  %29 = call zeroext i1 @bms_overlap(ptr noundef %25, ptr noundef %28)
  br i1 %29, label %30, label %31

30:                                               ; preds = %22, %3
  store i1 true, ptr %4, align 1
  store i32 1, ptr %10, align 4
  br label %227

31:                                               ; preds = %22
  call void @llvm.lifetime.start.p0(i64 16, ptr %11) #7
  %32 = getelementptr inbounds nuw %struct.ForEachState, ptr %11, i32 0, i32 0
  %33 = load ptr, ptr %5, align 8
  %34 = getelementptr inbounds nuw %struct.PlannerInfo, ptr %33, i32 0, i32 35
  %35 = load ptr, ptr %34, align 8
  store ptr %35, ptr %32, align 8
  %36 = getelementptr inbounds nuw %struct.ForEachState, ptr %11, i32 0, i32 1
  store i32 0, ptr %36, align 8
  %37 = getelementptr i8, ptr %11, i64 12
  call void @llvm.memset.p0.i64(ptr align 4 %37, i8 0, i64 4, i1 false)
  br label %38

38:                                               ; preds = %87, %31
  %39 = getelementptr inbounds nuw %struct.ForEachState, ptr %11, i32 0, i32 0
  %40 = load ptr, ptr %39, align 8
  %41 = icmp ne ptr %40, null
  br i1 %41, label %42, label %59

42:                                               ; preds = %38
  %43 = getelementptr inbounds nuw %struct.ForEachState, ptr %11, i32 0, i32 1
  %44 = load i32, ptr %43, align 8
  %45 = getelementptr inbounds nuw %struct.ForEachState, ptr %11, i32 0, i32 0
  %46 = load ptr, ptr %45, align 8
  %47 = getelementptr inbounds nuw %struct.List, ptr %46, i32 0, i32 1
  %48 = load i32, ptr %47, align 4
  %49 = icmp slt i32 %44, %48
  br i1 %49, label %50, label %59

50:                                               ; preds = %42
  %51 = getelementptr inbounds nuw %struct.ForEachState, ptr %11, i32 0, i32 0
  %52 = load ptr, ptr %51, align 8
  %53 = getelementptr inbounds nuw %struct.List, ptr %52, i32 0, i32 3
  %54 = load ptr, ptr %53, align 8
  %55 = getelementptr inbounds nuw %struct.ForEachState, ptr %11, i32 0, i32 1
  %56 = load i32, ptr %55, align 8
  %57 = sext i32 %56 to i64
  %58 = getelementptr inbounds %union.ListCell, ptr %54, i64 %57
  store ptr %58, ptr %9, align 8
  br label %60

59:                                               ; preds = %42, %38
  store ptr null, ptr %9, align 8
  br label %60

60:                                               ; preds = %59, %50
  %61 = phi i32 [ 1, %50 ], [ 0, %59 ]
  %62 = icmp ne i32 %61, 0
  br i1 %62, label %64, label %63

63:                                               ; preds = %60
  store i32 2, ptr %10, align 4
  br label %91

64:                                               ; preds = %60
  call void @llvm.lifetime.start.p0(i64 8, ptr %12) #7
  %65 = load ptr, ptr %9, align 8
  %66 = load ptr, ptr %65, align 8
  store ptr %66, ptr %12, align 8
  %67 = load ptr, ptr %6, align 8
  %68 = getelementptr inbounds nuw %struct.RelOptInfo, ptr %67, i32 0, i32 2
  %69 = load ptr, ptr %68, align 8
  %70 = load ptr, ptr %12, align 8
  %71 = getelementptr inbounds nuw %struct.PlaceHolderInfo, ptr %70, i32 0, i32 3
  %72 = load ptr, ptr %71, align 8
  %73 = call zeroext i1 @bms_is_subset(ptr noundef %69, ptr noundef %72)
  br i1 %73, label %74, label %83

74:                                               ; preds = %64
  %75 = load ptr, ptr %7, align 8
  %76 = getelementptr inbounds nuw %struct.RelOptInfo, ptr %75, i32 0, i32 2
  %77 = load ptr, ptr %76, align 8
  %78 = load ptr, ptr %12, align 8
  %79 = getelementptr inbounds nuw %struct.PlaceHolderInfo, ptr %78, i32 0, i32 3
  %80 = load ptr, ptr %79, align 8
  %81 = call zeroext i1 @bms_is_subset(ptr noundef %77, ptr noundef %80)
  br i1 %81, label %82, label %83

82:                                               ; preds = %74
  store i1 true, ptr %4, align 1
  store i32 1, ptr %10, align 4
  br label %84

83:                                               ; preds = %74, %64
  store i32 0, ptr %10, align 4
  br label %84

84:                                               ; preds = %83, %82
  call void @llvm.lifetime.end.p0(i64 8, ptr %12) #7
  %85 = load i32, ptr %10, align 4
  switch i32 %85, label %91 [
    i32 0, label %86
  ]

86:                                               ; preds = %84
  br label %87

87:                                               ; preds = %86
  %88 = getelementptr inbounds nuw %struct.ForEachState, ptr %11, i32 0, i32 1
  %89 = load i32, ptr %88, align 8
  %90 = add i32 %89, 1
  store i32 %90, ptr %88, align 8
  br label %38, !llvm.loop !15

91:                                               ; preds = %84, %63
  call void @llvm.lifetime.end.p0(i64 16, ptr %11) #7
  %92 = load i32, ptr %10, align 4
  switch i32 %92, label %227 [
    i32 2, label %93
  ]

93:                                               ; preds = %91
  call void @llvm.lifetime.start.p0(i64 16, ptr %13) #7
  %94 = getelementptr inbounds nuw %struct.ForEachState, ptr %13, i32 0, i32 0
  %95 = load ptr, ptr %5, align 8
  %96 = getelementptr inbounds nuw %struct.PlannerInfo, ptr %95, i32 0, i32 28
  %97 = load ptr, ptr %96, align 8
  store ptr %97, ptr %94, align 8
  %98 = getelementptr inbounds nuw %struct.ForEachState, ptr %13, i32 0, i32 1
  store i32 0, ptr %98, align 8
  %99 = getelementptr i8, ptr %13, i64 12
  call void @llvm.memset.p0.i64(ptr align 4 %99, i8 0, i64 4, i1 false)
  br label %100

100:                                              ; preds = %206, %93
  %101 = getelementptr inbounds nuw %struct.ForEachState, ptr %13, i32 0, i32 0
  %102 = load ptr, ptr %101, align 8
  %103 = icmp ne ptr %102, null
  br i1 %103, label %104, label %121

104:                                              ; preds = %100
  %105 = getelementptr inbounds nuw %struct.ForEachState, ptr %13, i32 0, i32 1
  %106 = load i32, ptr %105, align 8
  %107 = getelementptr inbounds nuw %struct.ForEachState, ptr %13, i32 0, i32 0
  %108 = load ptr, ptr %107, align 8
  %109 = getelementptr inbounds nuw %struct.List, ptr %108, i32 0, i32 1
  %110 = load i32, ptr %109, align 4
  %111 = icmp slt i32 %106, %110
  br i1 %111, label %112, label %121

112:                                              ; preds = %104
  %113 = getelementptr inbounds nuw %struct.ForEachState, ptr %13, i32 0, i32 0
  %114 = load ptr, ptr %113, align 8
  %115 = getelementptr inbounds nuw %struct.List, ptr %114, i32 0, i32 3
  %116 = load ptr, ptr %115, align 8
  %117 = getelementptr inbounds nuw %struct.ForEachState, ptr %13, i32 0, i32 1
  %118 = load i32, ptr %117, align 8
  %119 = sext i32 %118 to i64
  %120 = getelementptr inbounds %union.ListCell, ptr %116, i64 %119
  store ptr %120, ptr %9, align 8
  br label %122

121:                                              ; preds = %104, %100
  store ptr null, ptr %9, align 8
  br label %122

122:                                              ; preds = %121, %112
  %123 = phi i32 [ 1, %112 ], [ 0, %121 ]
  %124 = icmp ne i32 %123, 0
  br i1 %124, label %126, label %125

125:                                              ; preds = %122
  store i32 5, ptr %10, align 4
  br label %210

126:                                              ; preds = %122
  call void @llvm.lifetime.start.p0(i64 8, ptr %14) #7
  %127 = load ptr, ptr %9, align 8
  %128 = load ptr, ptr %127, align 8
  store ptr %128, ptr %14, align 8
  %129 = load ptr, ptr %14, align 8
  %130 = getelementptr inbounds nuw %struct.SpecialJoinInfo, ptr %129, i32 0, i32 5
  %131 = load i32, ptr %130, align 8
  %132 = icmp eq i32 %131, 2
  br i1 %132, label %133, label %134

133:                                              ; preds = %126
  store i32 7, ptr %10, align 4
  br label %203

134:                                              ; preds = %126
  %135 = load ptr, ptr %14, align 8
  %136 = getelementptr inbounds nuw %struct.SpecialJoinInfo, ptr %135, i32 0, i32 1
  %137 = load ptr, ptr %136, align 8
  %138 = load ptr, ptr %6, align 8
  %139 = getelementptr inbounds nuw %struct.RelOptInfo, ptr %138, i32 0, i32 2
  %140 = load ptr, ptr %139, align 8
  %141 = call zeroext i1 @bms_is_subset(ptr noundef %137, ptr noundef %140)
  br i1 %141, label %142, label %151

142:                                              ; preds = %134
  %143 = load ptr, ptr %14, align 8
  %144 = getelementptr inbounds nuw %struct.SpecialJoinInfo, ptr %143, i32 0, i32 2
  %145 = load ptr, ptr %144, align 8
  %146 = load ptr, ptr %7, align 8
  %147 = getelementptr inbounds nuw %struct.RelOptInfo, ptr %146, i32 0, i32 2
  %148 = load ptr, ptr %147, align 8
  %149 = call zeroext i1 @bms_is_subset(ptr noundef %145, ptr noundef %148)
  br i1 %149, label %150, label %151

150:                                              ; preds = %142
  store i8 1, ptr %8, align 1
  store i32 5, ptr %10, align 4
  br label %203

151:                                              ; preds = %142, %134
  %152 = load ptr, ptr %14, align 8
  %153 = getelementptr inbounds nuw %struct.SpecialJoinInfo, ptr %152, i32 0, i32 1
  %154 = load ptr, ptr %153, align 8
  %155 = load ptr, ptr %7, align 8
  %156 = getelementptr inbounds nuw %struct.RelOptInfo, ptr %155, i32 0, i32 2
  %157 = load ptr, ptr %156, align 8
  %158 = call zeroext i1 @bms_is_subset(ptr noundef %154, ptr noundef %157)
  br i1 %158, label %159, label %168

159:                                              ; preds = %151
  %160 = load ptr, ptr %14, align 8
  %161 = getelementptr inbounds nuw %struct.SpecialJoinInfo, ptr %160, i32 0, i32 2
  %162 = load ptr, ptr %161, align 8
  %163 = load ptr, ptr %6, align 8
  %164 = getelementptr inbounds nuw %struct.RelOptInfo, ptr %163, i32 0, i32 2
  %165 = load ptr, ptr %164, align 8
  %166 = call zeroext i1 @bms_is_subset(ptr noundef %162, ptr noundef %165)
  br i1 %166, label %167, label %168

167:                                              ; preds = %159
  store i8 1, ptr %8, align 1
  store i32 5, ptr %10, align 4
  br label %203

168:                                              ; preds = %159, %151
  %169 = load ptr, ptr %14, align 8
  %170 = getelementptr inbounds nuw %struct.SpecialJoinInfo, ptr %169, i32 0, i32 2
  %171 = load ptr, ptr %170, align 8
  %172 = load ptr, ptr %6, align 8
  %173 = getelementptr inbounds nuw %struct.RelOptInfo, ptr %172, i32 0, i32 2
  %174 = load ptr, ptr %173, align 8
  %175 = call zeroext i1 @bms_overlap(ptr noundef %171, ptr noundef %174)
  br i1 %175, label %176, label %185

176:                                              ; preds = %168
  %177 = load ptr, ptr %14, align 8
  %178 = getelementptr inbounds nuw %struct.SpecialJoinInfo, ptr %177, i32 0, i32 2
  %179 = load ptr, ptr %178, align 8
  %180 = load ptr, ptr %7, align 8
  %181 = getelementptr inbounds nuw %struct.RelOptInfo, ptr %180, i32 0, i32 2
  %182 = load ptr, ptr %181, align 8
  %183 = call zeroext i1 @bms_overlap(ptr noundef %179, ptr noundef %182)
  br i1 %183, label %184, label %185

184:                                              ; preds = %176
  store i8 1, ptr %8, align 1
  store i32 5, ptr %10, align 4
  br label %203

185:                                              ; preds = %176, %168
  %186 = load ptr, ptr %14, align 8
  %187 = getelementptr inbounds nuw %struct.SpecialJoinInfo, ptr %186, i32 0, i32 1
  %188 = load ptr, ptr %187, align 8
  %189 = load ptr, ptr %6, align 8
  %190 = getelementptr inbounds nuw %struct.RelOptInfo, ptr %189, i32 0, i32 2
  %191 = load ptr, ptr %190, align 8
  %192 = call zeroext i1 @bms_overlap(ptr noundef %188, ptr noundef %191)
  br i1 %192, label %193, label %202

193:                                              ; preds = %185
  %194 = load ptr, ptr %14, align 8
  %195 = getelementptr inbounds nuw %struct.SpecialJoinInfo, ptr %194, i32 0, i32 1
  %196 = load ptr, ptr %195, align 8
  %197 = load ptr, ptr %7, align 8
  %198 = getelementptr inbounds nuw %struct.RelOptInfo, ptr %197, i32 0, i32 2
  %199 = load ptr, ptr %198, align 8
  %200 = call zeroext i1 @bms_overlap(ptr noundef %196, ptr noundef %199)
  br i1 %200, label %201, label %202

201:                                              ; preds = %193
  store i8 1, ptr %8, align 1
  store i32 5, ptr %10, align 4
  br label %203

202:                                              ; preds = %193, %185
  store i32 0, ptr %10, align 4
  br label %203

203:                                              ; preds = %202, %201, %184, %167, %150, %133
  call void @llvm.lifetime.end.p0(i64 8, ptr %14) #7
  %204 = load i32, ptr %10, align 4
  switch i32 %204, label %210 [
    i32 0, label %205
    i32 7, label %206
  ]

205:                                              ; preds = %203
  br label %206

206:                                              ; preds = %205, %203
  %207 = getelementptr inbounds nuw %struct.ForEachState, ptr %13, i32 0, i32 1
  %208 = load i32, ptr %207, align 8
  %209 = add i32 %208, 1
  store i32 %209, ptr %207, align 8
  br label %100, !llvm.loop !16

210:                                              ; preds = %203, %125
  call void @llvm.lifetime.end.p0(i64 16, ptr %13) #7
  br label %211

211:                                              ; preds = %210
  %212 = load i8, ptr %8, align 1, !range !4, !noundef !5
  %213 = trunc i8 %212 to i1
  br i1 %213, label %214, label %224

214:                                              ; preds = %211
  %215 = load ptr, ptr %5, align 8
  %216 = load ptr, ptr %6, align 8
  %217 = call zeroext i1 @has_legal_joinclause(ptr noundef %215, ptr noundef %216)
  br i1 %217, label %222, label %218

218:                                              ; preds = %214
  %219 = load ptr, ptr %5, align 8
  %220 = load ptr, ptr %7, align 8
  %221 = call zeroext i1 @has_legal_joinclause(ptr noundef %219, ptr noundef %220)
  br i1 %221, label %222, label %223

222:                                              ; preds = %218, %214
  store i8 0, ptr %8, align 1
  br label %223

223:                                              ; preds = %222, %218
  br label %224

224:                                              ; preds = %223, %211
  %225 = load i8, ptr %8, align 1, !range !4, !noundef !5
  %226 = trunc i8 %225 to i1
  store i1 %226, ptr %4, align 1
  store i32 1, ptr %10, align 4
  br label %227

227:                                              ; preds = %224, %91, %30
  call void @llvm.lifetime.end.p0(i64 8, ptr %9) #7
  call void @llvm.lifetime.end.p0(i64 1, ptr %8) #7
  %228 = load i1, ptr %4, align 1
  ret i1 %228
}