; Function Attrs: nounwind uwtable
define dso_local noundef zeroext i1 @have_join_order_restriction(ptr noundef %0, ptr noundef %1, ptr noundef %2) local_unnamed_addr #0 {
  %4 = getelementptr inbounds nuw i8, ptr %1, i64 8
  %5 = load ptr, ptr %4, align 8
  %6 = getelementptr inbounds nuw i8, ptr %2, i64 96
  %7 = load ptr, ptr %6, align 8
  %8 = tail call zeroext i1 @bms_overlap(ptr noundef %5, ptr noundef %7) #9
  br i1 %8, label %.loopexit, label %9

9:                                                ; preds = %3
  %10 = getelementptr inbounds nuw i8, ptr %2, i64 8
  %11 = load ptr, ptr %10, align 8
  %12 = getelementptr inbounds nuw i8, ptr %1, i64 96
  %13 = load ptr, ptr %12, align 8
  %14 = tail call zeroext i1 @bms_overlap(ptr noundef %11, ptr noundef %13) #9
  br i1 %14, label %.loopexit, label %15

15:                                               ; preds = %9
  %16 = getelementptr inbounds nuw i8, ptr %0, i64 280
  %17 = load ptr, ptr %16, align 8
  %.not = icmp eq ptr %17, null
  br i1 %.not, label %.critedge65, label %.lr.ph

.lr.ph:                                           ; preds = %15
  %18 = getelementptr inbounds nuw i8, ptr %17, i64 4
  %19 = getelementptr inbounds nuw i8, ptr %17, i64 16
  %20 = load i32, ptr %18, align 4
  %21 = icmp sgt i32 %20, 0
  br i1 %21, label %.lr.ph83, label %.critedge65

.lr.ph83:                                         ; preds = %.lr.ph, %.critedge
  %indvars.iv = phi i64 [ %indvars.iv.next, %.critedge ], [ 0, %.lr.ph ]
  %22 = load ptr, ptr %19, align 8
  %23 = getelementptr inbounds nuw %union.ListCell, ptr %22, i64 %indvars.iv
  %24 = load ptr, ptr %23, align 8
  %25 = load ptr, ptr %4, align 8
  %26 = getelementptr inbounds nuw i8, ptr %24, i64 16
  %27 = load ptr, ptr %26, align 8
  %28 = tail call zeroext i1 @bms_is_subset(ptr noundef %25, ptr noundef %27) #9
  br i1 %28, label %29, label %.critedge

29:                                               ; preds = %.lr.ph83
  %30 = load ptr, ptr %10, align 8
  %31 = load ptr, ptr %26, align 8
  %32 = tail call zeroext i1 @bms_is_subset(ptr noundef %30, ptr noundef %31) #9
  br i1 %32, label %.loopexit, label %.critedge

.critedge:                                        ; preds = %29, %.lr.ph83
  %indvars.iv.next = add nuw nsw i64 %indvars.iv, 1
  %33 = load i32, ptr %18, align 4
  %34 = sext i32 %33 to i64
  %35 = icmp slt i64 %indvars.iv.next, %34
  br i1 %35, label %.lr.ph83, label %.critedge65

.critedge65:                                      ; preds = %.critedge, %.lr.ph, %15
  %36 = getelementptr inbounds nuw i8, ptr %0, i64 224
  %37 = load ptr, ptr %36, align 8
  %.not62 = icmp eq ptr %37, null
  br i1 %.not62, label %.loopexit, label %.lr.ph85

.lr.ph85:                                         ; preds = %.critedge65
  %38 = getelementptr inbounds nuw i8, ptr %37, i64 4
  %39 = getelementptr inbounds nuw i8, ptr %37, i64 16
  %40 = load i32, ptr %38, align 4
  %41 = icmp sgt i32 %40, 0
  br i1 %41, label %.lr.ph95, label %.loopexit

.lr.ph95:                                         ; preds = %.lr.ph85, %84
  %indvars.iv8994 = phi i64 [ %indvars.iv.next90, %84 ], [ 0, %.lr.ph85 ]
  %42 = load ptr, ptr %39, align 8
  %43 = getelementptr inbounds nuw %union.ListCell, ptr %42, i64 %indvars.iv8994
  %44 = load ptr, ptr %43, align 8
  %45 = getelementptr inbounds nuw i8, ptr %44, i64 40
  %46 = load i32, ptr %45, align 8
  %47 = icmp eq i32 %46, 2
  br i1 %47, label %84, label %48

48:                                               ; preds = %.lr.ph95
  %49 = getelementptr inbounds nuw i8, ptr %44, i64 8
  %50 = load ptr, ptr %49, align 8
  %51 = load ptr, ptr %4, align 8
  %52 = tail call zeroext i1 @bms_is_subset(ptr noundef %50, ptr noundef %51) #9
  br i1 %52, label %53, label %58

53:                                               ; preds = %48
  %54 = getelementptr inbounds nuw i8, ptr %44, i64 16
  %55 = load ptr, ptr %54, align 8
  %56 = load ptr, ptr %10, align 8
  %57 = tail call zeroext i1 @bms_is_subset(ptr noundef %55, ptr noundef %56) #9
  br i1 %57, label %.thread76, label %58

58:                                               ; preds = %53, %48
  %59 = load ptr, ptr %49, align 8
  %60 = load ptr, ptr %10, align 8
  %61 = tail call zeroext i1 @bms_is_subset(ptr noundef %59, ptr noundef %60) #9
  br i1 %61, label %62, label %67

62:                                               ; preds = %58
  %63 = getelementptr inbounds nuw i8, ptr %44, i64 16
  %64 = load ptr, ptr %63, align 8
  %65 = load ptr, ptr %4, align 8
  %66 = tail call zeroext i1 @bms_is_subset(ptr noundef %64, ptr noundef %65) #9
  br i1 %66, label %.thread76, label %67

67:                                               ; preds = %62, %58
  %68 = getelementptr inbounds nuw i8, ptr %44, i64 16
  %69 = load ptr, ptr %68, align 8
  %70 = load ptr, ptr %4, align 8
  %71 = tail call zeroext i1 @bms_overlap(ptr noundef %69, ptr noundef %70) #9
  br i1 %71, label %72, label %76

72:                                               ; preds = %67
  %73 = load ptr, ptr %68, align 8
  %74 = load ptr, ptr %10, align 8
  %75 = tail call zeroext i1 @bms_overlap(ptr noundef %73, ptr noundef %74) #9
  br i1 %75, label %.thread76, label %76

76:                                               ; preds = %72, %67
  %77 = load ptr, ptr %49, align 8
  %78 = load ptr, ptr %4, align 8
  %79 = tail call zeroext i1 @bms_overlap(ptr noundef %77, ptr noundef %78) #9
  br i1 %79, label %80, label %84

80:                                               ; preds = %76
  %81 = load ptr, ptr %49, align 8
  %82 = load ptr, ptr %10, align 8
  %83 = tail call zeroext i1 @bms_overlap(ptr noundef %81, ptr noundef %82) #9
  br i1 %83, label %.thread76, label %84

84:                                               ; preds = %76, %80, %.lr.ph95
  %indvars.iv.next90 = add nuw nsw i64 %indvars.iv8994, 1
  %85 = load i32, ptr %38, align 4
  %86 = sext i32 %85 to i64
  %87 = icmp slt i64 %indvars.iv.next90, %86
  br i1 %87, label %.lr.ph95, label %.loopexit

.thread76:                                        ; preds = %53, %62, %72, %80
  %88 = tail call fastcc zeroext i1 @has_legal_joinclause(ptr noundef %0, ptr noundef nonnull %1)
  br i1 %88, label %91, label %89

89:                                               ; preds = %.thread76
  %90 = tail call fastcc zeroext i1 @has_legal_joinclause(ptr noundef %0, ptr noundef nonnull %2)
  br i1 %90, label %91, label %.loopexit

91:                                               ; preds = %89, %.thread76
  br label %.loopexit

.loopexit:                                        ; preds = %29, %84, %.lr.ph85, %.critedge65, %91, %89, %3, %9
  %.0 = phi i1 [ true, %9 ], [ true, %3 ], [ false, %91 ], [ true, %89 ], [ false, %.critedge65 ], [ false, %.lr.ph85 ], [ false, %84 ], [ true, %29 ]
  ret i1 %.0
}